(lp0
(S'cppflags'
p1
ccopy_reg
_reconstructor
p2
(cino.utils
SpaceList
p3
c__builtin__
list
p4
(lp5
S'-mmcu=atmega328p'
p6
aS'-DF_CPU=16000000L'
p7
aS'-DARDUINO=101'
p8
aS'-I/usr/share/arduino/hardware/arduino/cores/arduino'
p9
aS'-ffunction-sections'
p10
aS'-fdata-sections'
p11
aS'-g'
p12
aS'-Os'
p13
aS'-w'
p14
aS'-I/usr/share/arduino/hardware/arduino/variants/eightanaloginputs'
p15
aS'-I/usr/share/arduino/libraries/Servo'
p16
aS'-Ilib/hx711'
p17
aS'-I/usr/share/arduino/hardware/arduino/cores/arduino'
p18
atp19
Rp20
tp21
a(S'cc'
p22
S'/usr/bin/avr-gcc'
p23
tp24
a(S'arduino_libraries_dir'
p25
S'/usr/share/arduino/libraries'
p26
tp27
a(S'avrdude'
p28
S'/usr/share/arduino/hardware/tools/avrdude'
p29
tp30
a(S'ar'
p31
S'/usr/bin/avr-ar'
p32
tp33
a(S'names'
p34
(dp35
S'cpp'
p36
S'%s.cpp'
p37
sS'obj'
p38
S'%s.o'
p39
sS'lib'
p40
S'lib%s.a'
p41
sS'deps'
p42
S'%s.d'
p43
stp44
a(S'ldflags'
p45
g2
(g3
g4
(lp46
g6
aS'-Wl,-Os'
p47
aS'-Wl,--gc-sections'
p48
atp49
Rp50
tp51
a(S'arduino_lib_version'
p52
g2
(cino.environment
Version
p53
c__builtin__
tuple
p54
(I1
I0
I1
tp55
tp56
Rp57
tp58
a(S'objcopy'
p59
S'/usr/bin/avr-objcopy'
p60
tp61
a(S'board_models'
p62
cino.environment
BoardModels
p63
((lp64
(lp65
S'uno'
p66
a(dp67
S'_coredir'
p68
S'/usr/share/arduino/hardware/arduino'
p69
sS'bootloader'
p70
(dp71
S'extended_fuses'
p72
S'0x05'
p73
sS'high_fuses'
p74
S'0xde'
p75
sS'low_fuses'
p76
S'0xff'
p77
sS'lock_bits'
p78
S'0x0F'
p79
sS'file'
p80
S'optiboot_atmega328.hex'
p81
sS'path'
p82
S'optiboot'
p83
sS'unlock_bits'
p84
S'0x3F'
p85
ssS'upload'
p86
(dp87
S'protocol'
p88
S'arduino'
p89
sS'maximum_size'
p90
S'32256'
p91
sS'speed'
p92
S'115200'
p93
ssS'name'
p94
S'Arduino Uno'
p95
sS'build'
p96
(dp97
S'core'
p98
S'arduino'
p99
sS'mcu'
p100
S'atmega328p'
p101
sS'f_cpu'
p102
S'16000000L'
p103
sS'variant'
p104
S'standard'
p105
ssaa(lp106
S'atmega328'
p107
a(dp108
g68
S'/usr/share/arduino/hardware/arduino'
p109
sS'bootloader'
p110
(dp111
S'extended_fuses'
p112
S'0x05'
p113
sS'high_fuses'
p114
S'0xDA'
p115
sS'low_fuses'
p116
S'0xFF'
p117
sS'lock_bits'
p118
S'0x0F'
p119
sS'file'
p120
S'ATmegaBOOT_168_atmega328.hex'
p121
sS'path'
p122
S'atmega'
p123
sS'unlock_bits'
p124
S'0x3F'
p125
ssS'upload'
p126
(dp127
S'protocol'
p128
S'arduino'
p129
sS'maximum_size'
p130
S'30720'
p131
sS'speed'
p132
S'57600'
p133
ssS'name'
p134
S'Arduino Duemilanove w/ ATmega328'
p135
sS'build'
p136
(dp137
S'core'
p138
S'arduino'
p139
sS'mcu'
p140
S'atmega328p'
p141
sS'f_cpu'
p142
S'16000000L'
p143
sS'variant'
p144
S'standard'
p145
ssaa(lp146
S'diecimila'
p147
a(dp148
g68
S'/usr/share/arduino/hardware/arduino'
p149
sS'bootloader'
p150
(dp151
S'extended_fuses'
p152
S'0x00'
p153
sS'high_fuses'
p154
S'0xdd'
p155
sS'low_fuses'
p156
S'0xff'
p157
sS'lock_bits'
p158
S'0x0F'
p159
sS'file'
p160
S'ATmegaBOOT_168_diecimila.hex'
p161
sS'path'
p162
S'atmega'
p163
sS'unlock_bits'
p164
S'0x3F'
p165
ssS'upload'
p166
(dp167
S'protocol'
p168
S'arduino'
p169
sS'maximum_size'
p170
S'14336'
p171
sS'speed'
p172
S'19200'
p173
ssS'name'
p174
S'Arduino Diecimila or Duemilanove w/ ATmega168'
p175
sS'build'
p176
(dp177
S'core'
p178
S'arduino'
p179
sS'mcu'
p180
S'atmega168'
p181
sS'f_cpu'
p182
S'16000000L'
p183
sS'variant'
p184
S'standard'
p185
ssaa(lp186
S'nano328'
p187
a(dp188
g68
S'/usr/share/arduino/hardware/arduino'
p189
sS'bootloader'
p190
(dp191
S'extended_fuses'
p192
S'0x05'
p193
sS'high_fuses'
p194
S'0xDA'
p195
sS'low_fuses'
p196
S'0xFF'
p197
sS'lock_bits'
p198
S'0x0F'
p199
sS'file'
p200
S'ATmegaBOOT_168_atmega328.hex'
p201
sS'path'
p202
S'atmega'
p203
sS'unlock_bits'
p204
S'0x3F'
p205
ssS'upload'
p206
(dp207
S'protocol'
p208
S'arduino'
p209
sS'maximum_size'
p210
S'30720'
p211
sS'speed'
p212
S'57600'
p213
ssS'name'
p214
S'Arduino Nano w/ ATmega328'
p215
sS'build'
p216
(dp217
S'core'
p218
S'arduino'
p219
sS'mcu'
p220
S'atmega328p'
p221
sS'f_cpu'
p222
S'16000000L'
p223
sS'variant'
p224
S'eightanaloginputs'
p225
ssaa(lp226
S'nano'
p227
a(dp228
g68
S'/usr/share/arduino/hardware/arduino'
p229
sS'bootloader'
p230
(dp231
S'extended_fuses'
p232
S'0x00'
p233
sS'high_fuses'
p234
S'0xdd'
p235
sS'low_fuses'
p236
S'0xff'
p237
sS'lock_bits'
p238
S'0x0F'
p239
sS'file'
p240
S'ATmegaBOOT_168_diecimila.hex'
p241
sS'path'
p242
S'atmega'
p243
sS'unlock_bits'
p244
S'0x3F'
p245
ssS'upload'
p246
(dp247
S'protocol'
p248
S'arduino'
p249
sS'maximum_size'
p250
S'14336'
p251
sS'speed'
p252
S'19200'
p253
ssS'name'
p254
S'Arduino Nano w/ ATmega168'
p255
sS'build'
p256
(dp257
S'core'
p258
S'arduino'
p259
sS'mcu'
p260
S'atmega168'
p261
sS'f_cpu'
p262
S'16000000L'
p263
sS'variant'
p264
S'eightanaloginputs'
p265
ssaa(lp266
S'mega2560'
p267
a(dp268
g68
S'/usr/share/arduino/hardware/arduino'
p269
sS'bootloader'
p270
(dp271
S'extended_fuses'
p272
S'0xFD'
p273
sS'high_fuses'
p274
S'0xD8'
p275
sS'low_fuses'
p276
S'0xFF'
p277
sS'lock_bits'
p278
S'0x0F'
p279
sS'file'
p280
S'stk500boot_v2_mega2560.hex'
p281
sS'path'
p282
S'stk500v2'
p283
sS'unlock_bits'
p284
S'0x3F'
p285
ssS'upload'
p286
(dp287
S'protocol'
p288
S'stk500v2'
p289
sS'maximum_size'
p290
S'258048'
p291
sS'speed'
p292
S'115200'
p293
ssS'name'
p294
S'Arduino Mega 2560 or Mega ADK'
p295
sS'build'
p296
(dp297
S'core'
p298
S'arduino'
p299
sS'mcu'
p300
S'atmega2560'
p301
sS'f_cpu'
p302
S'16000000L'
p303
sS'variant'
p304
S'mega'
p305
ssaa(lp306
S'mega'
p307
a(dp308
g68
S'/usr/share/arduino/hardware/arduino'
p309
sS'bootloader'
p310
(dp311
S'extended_fuses'
p312
S'0xF5'
p313
sS'high_fuses'
p314
S'0xDA'
p315
sS'low_fuses'
p316
S'0xFF'
p317
sS'lock_bits'
p318
S'0x0F'
p319
sS'file'
p320
S'ATmegaBOOT_168_atmega1280.hex'
p321
sS'path'
p322
S'atmega'
p323
sS'unlock_bits'
p324
S'0x3F'
p325
ssS'upload'
p326
(dp327
S'protocol'
p328
S'arduino'
p329
sS'maximum_size'
p330
S'126976'
p331
sS'speed'
p332
S'57600'
p333
ssS'name'
p334
S'Arduino Mega (ATmega1280)'
p335
sS'build'
p336
(dp337
S'core'
p338
S'arduino'
p339
sS'mcu'
p340
S'atmega1280'
p341
sS'f_cpu'
p342
S'16000000L'
p343
sS'variant'
p344
S'mega'
p345
ssaa(lp346
S'leonardo'
p347
a(dp348
g68
S'/usr/share/arduino/hardware/arduino'
p349
sS'bootloader'
p350
(dp351
S'extended_fuses'
p352
S'0xcb'
p353
sS'high_fuses'
p354
S'0xd8'
p355
sS'low_fuses'
p356
S'0xff'
p357
sS'lock_bits'
p358
S'0x2F'
p359
sS'file'
p360
S'Caterina-Leonardo.hex'
p361
sS'path'
p362
S'caterina'
p363
sS'unlock_bits'
p364
S'0x3F'
p365
ssS'upload'
p366
(dp367
S'protocol'
p368
S'avr109'
p369
sS'maximum_size'
p370
S'28672'
p371
sS'speed'
p372
S'57600'
p373
sS'disable_flushing'
p374
S'true'
p375
ssS'name'
p376
S'Arduino Leonardo'
p377
sS'build'
p378
(dp379
S'core'
p380
S'arduino'
p381
sS'f_cpu'
p382
S'16000000L'
p383
sS'vid'
p384
S'0x2341'
p385
sS'pid'
p386
S'0x8036'
p387
sS'variant'
p388
S'leonardo'
p389
sS'mcu'
p390
S'atmega32u4'
p391
ssaa(lp392
S'mini328'
p393
a(dp394
g68
S'/usr/share/arduino/hardware/arduino'
p395
sS'bootloader'
p396
(dp397
S'extended_fuses'
p398
S'0x05'
p399
sS'high_fuses'
p400
S'0xd8'
p401
sS'low_fuses'
p402
S'0xff'
p403
sS'lock_bits'
p404
S'0x0F'
p405
sS'file'
p406
S'optiboot_atmega328-Mini.hex'
p407
sS'path'
p408
S'optiboot'
p409
sS'unlock_bits'
p410
S'0x3F'
p411
ssS'upload'
p412
(dp413
S'protocol'
p414
S'arduino'
p415
sS'maximum_size'
p416
S'28672'
p417
sS'speed'
p418
S'115200'
p419
ssS'name'
p420
S'Arduino Mini w/ ATmega328'
p421
sS'build'
p422
(dp423
S'core'
p424
S'arduino'
p425
sS'mcu'
p426
S'atmega328p'
p427
sS'f_cpu'
p428
S'16000000L'
p429
sS'variant'
p430
S'eightanaloginputs'
p431
ssaa(lp432
S'mini'
p433
a(dp434
g68
S'/usr/share/arduino/hardware/arduino'
p435
sS'bootloader'
p436
(dp437
S'extended_fuses'
p438
S'0x00'
p439
sS'high_fuses'
p440
S'0xdd'
p441
sS'low_fuses'
p442
S'0xff'
p443
sS'lock_bits'
p444
S'0x0F'
p445
sS'file'
p446
S'ATmegaBOOT_168_ng.hex'
p447
sS'path'
p448
S'atmega'
p449
sS'unlock_bits'
p450
S'0x3F'
p451
ssS'upload'
p452
(dp453
S'protocol'
p454
S'arduino'
p455
sS'maximum_size'
p456
S'14336'
p457
sS'speed'
p458
S'19200'
p459
ssS'name'
p460
S'Arduino Mini w/ ATmega168'
p461
sS'build'
p462
(dp463
S'core'
p464
S'arduino'
p465
sS'mcu'
p466
S'atmega168'
p467
sS'f_cpu'
p468
S'16000000L'
p469
sS'variant'
p470
S'eightanaloginputs'
p471
ssaa(lp472
S'ethernet'
p473
a(dp474
g68
S'/usr/share/arduino/hardware/arduino'
p475
sS'bootloader'
p476
(dp477
S'extended_fuses'
p478
S'0x05'
p479
sS'high_fuses'
p480
S'0xde'
p481
sS'low_fuses'
p482
S'0xff'
p483
sS'lock_bits'
p484
S'0x0F'
p485
sS'file'
p486
S'optiboot_atmega328.hex'
p487
sS'path'
p488
S'optiboot'
p489
sS'unlock_bits'
p490
S'0x3F'
p491
ssS'upload'
p492
(dp493
S'protocol'
p494
S'arduino'
p495
sS'maximum_size'
p496
S'32256'
p497
sS'speed'
p498
S'115200'
p499
ssS'name'
p500
S'Arduino Ethernet'
p501
sS'build'
p502
(dp503
S'variant'
p504
S'standard'
p505
sS'mcu'
p506
S'atmega328p'
p507
sS'f_cpu'
p508
S'16000000L'
p509
sS'core'
p510
S'arduino'
p511
ssaa(lp512
S'fio'
p513
a(dp514
g68
S'/usr/share/arduino/hardware/arduino'
p515
sS'bootloader'
p516
(dp517
S'extended_fuses'
p518
S'0x05'
p519
sS'high_fuses'
p520
S'0xDA'
p521
sS'low_fuses'
p522
S'0xFF'
p523
sS'lock_bits'
p524
S'0x0F'
p525
sS'file'
p526
S'ATmegaBOOT_168_atmega328_pro_8MHz.hex'
p527
sS'path'
p528
S'arduino:atmega'
p529
sS'unlock_bits'
p530
S'0x3F'
p531
ssS'upload'
p532
(dp533
S'protocol'
p534
S'arduino'
p535
sS'maximum_size'
p536
S'30720'
p537
sS'speed'
p538
S'57600'
p539
ssS'name'
p540
S'Arduino Fio'
p541
sS'build'
p542
(dp543
S'core'
p544
S'arduino'
p545
sS'mcu'
p546
S'atmega328p'
p547
sS'f_cpu'
p548
S'8000000L'
p549
sS'variant'
p550
S'eightanaloginputs'
p551
ssaa(lp552
S'bt328'
p553
a(dp554
g68
S'/usr/share/arduino/hardware/arduino'
p555
sS'bootloader'
p556
(dp557
S'extended_fuses'
p558
S'0x05'
p559
sS'high_fuses'
p560
S'0xd8'
p561
sS'low_fuses'
p562
S'0xff'
p563
sS'lock_bits'
p564
S'0x0F'
p565
sS'file'
p566
S'ATmegaBOOT_168_atmega328_bt.hex'
p567
sS'path'
p568
S'bt'
p569
sS'unlock_bits'
p570
S'0x3F'
p571
ssS'upload'
p572
(dp573
S'protocol'
p574
S'arduino'
p575
sS'maximum_size'
p576
S'28672'
p577
sS'speed'
p578
S'19200'
p579
sS'disable_flushing'
p580
S'true'
p581
ssS'name'
p582
S'Arduino BT w/ ATmega328'
p583
sS'build'
p584
(dp585
S'core'
p586
S'arduino'
p587
sS'mcu'
p588
S'atmega328p'
p589
sS'f_cpu'
p590
S'16000000L'
p591
sS'variant'
p592
S'eightanaloginputs'
p593
ssaa(lp594
S'bt'
p595
a(dp596
g68
S'/usr/share/arduino/hardware/arduino'
p597
sS'bootloader'
p598
(dp599
S'extended_fuses'
p600
S'0x00'
p601
sS'high_fuses'
p602
S'0xdd'
p603
sS'low_fuses'
p604
S'0xff'
p605
sS'lock_bits'
p606
S'0x0F'
p607
sS'file'
p608
S'ATmegaBOOT_168.hex'
p609
sS'path'
p610
S'bt'
p611
sS'unlock_bits'
p612
S'0x3F'
p613
ssS'upload'
p614
(dp615
S'protocol'
p616
S'arduino'
p617
sS'maximum_size'
p618
S'14336'
p619
sS'speed'
p620
S'19200'
p621
sS'disable_flushing'
p622
S'true'
p623
ssS'name'
p624
S'Arduino BT w/ ATmega168'
p625
sS'build'
p626
(dp627
S'core'
p628
S'arduino'
p629
sS'mcu'
p630
S'atmega168'
p631
sS'f_cpu'
p632
S'16000000L'
p633
sS'variant'
p634
S'eightanaloginputs'
p635
ssaa(lp636
S'lilypad328'
p637
a(dp638
g68
S'/usr/share/arduino/hardware/arduino'
p639
sS'bootloader'
p640
(dp641
S'extended_fuses'
p642
S'0x05'
p643
sS'high_fuses'
p644
S'0xDA'
p645
sS'low_fuses'
p646
S'0xFF'
p647
sS'lock_bits'
p648
S'0x0F'
p649
sS'file'
p650
S'ATmegaBOOT_168_atmega328_pro_8MHz.hex'
p651
sS'path'
p652
S'atmega'
p653
sS'unlock_bits'
p654
S'0x3F'
p655
ssS'upload'
p656
(dp657
S'protocol'
p658
S'arduino'
p659
sS'maximum_size'
p660
S'30720'
p661
sS'speed'
p662
S'57600'
p663
ssS'name'
p664
S'LilyPad Arduino w/ ATmega328'
p665
sS'build'
p666
(dp667
S'core'
p668
S'arduino'
p669
sS'mcu'
p670
S'atmega328p'
p671
sS'f_cpu'
p672
S'8000000L'
p673
sS'variant'
p674
S'standard'
p675
ssaa(lp676
S'lilypad'
p677
a(dp678
g68
S'/usr/share/arduino/hardware/arduino'
p679
sS'bootloader'
p680
(dp681
S'extended_fuses'
p682
S'0x00'
p683
sS'high_fuses'
p684
S'0xdd'
p685
sS'low_fuses'
p686
S'0xe2'
p687
sS'lock_bits'
p688
S'0x0F'
p689
sS'file'
p690
S'LilyPadBOOT_168.hex'
p691
sS'path'
p692
S'lilypad'
p693
sS'unlock_bits'
p694
S'0x3F'
p695
ssS'upload'
p696
(dp697
S'protocol'
p698
S'arduino'
p699
sS'maximum_size'
p700
S'14336'
p701
sS'speed'
p702
S'19200'
p703
ssS'name'
p704
S'LilyPad Arduino w/ ATmega168'
p705
sS'build'
p706
(dp707
S'core'
p708
S'arduino'
p709
sS'mcu'
p710
S'atmega168'
p711
sS'f_cpu'
p712
S'8000000L'
p713
sS'variant'
p714
S'standard'
p715
ssaa(lp716
S'pro5v328'
p717
a(dp718
g68
S'/usr/share/arduino/hardware/arduino'
p719
sS'bootloader'
p720
(dp721
S'extended_fuses'
p722
S'0x05'
p723
sS'high_fuses'
p724
S'0xDA'
p725
sS'low_fuses'
p726
S'0xFF'
p727
sS'lock_bits'
p728
S'0x0F'
p729
sS'file'
p730
S'ATmegaBOOT_168_atmega328.hex'
p731
sS'path'
p732
S'atmega'
p733
sS'unlock_bits'
p734
S'0x3F'
p735
ssS'upload'
p736
(dp737
S'protocol'
p738
S'arduino'
p739
sS'maximum_size'
p740
S'30720'
p741
sS'speed'
p742
S'57600'
p743
ssS'name'
p744
S'Arduino Pro or Pro Mini (5V, 16 MHz) w/ ATmega328'
p745
sS'build'
p746
(dp747
S'core'
p748
S'arduino'
p749
sS'mcu'
p750
S'atmega328p'
p751
sS'f_cpu'
p752
S'16000000L'
p753
sS'variant'
p754
S'standard'
p755
ssaa(lp756
S'pro5v'
p757
a(dp758
g68
S'/usr/share/arduino/hardware/arduino'
p759
sS'bootloader'
p760
(dp761
S'extended_fuses'
p762
S'0x00'
p763
sS'high_fuses'
p764
S'0xdd'
p765
sS'low_fuses'
p766
S'0xff'
p767
sS'lock_bits'
p768
S'0x0F'
p769
sS'file'
p770
S'ATmegaBOOT_168_diecimila.hex'
p771
sS'path'
p772
S'atmega'
p773
sS'unlock_bits'
p774
S'0x3F'
p775
ssS'upload'
p776
(dp777
S'protocol'
p778
S'arduino'
p779
sS'maximum_size'
p780
S'14336'
p781
sS'speed'
p782
S'19200'
p783
ssS'name'
p784
S'Arduino Pro or Pro Mini (5V, 16 MHz) w/ ATmega168'
p785
sS'build'
p786
(dp787
S'core'
p788
S'arduino'
p789
sS'mcu'
p790
S'atmega168'
p791
sS'f_cpu'
p792
S'16000000L'
p793
sS'variant'
p794
S'standard'
p795
ssaa(lp796
S'pro328'
p797
a(dp798
g68
S'/usr/share/arduino/hardware/arduino'
p799
sS'bootloader'
p800
(dp801
S'extended_fuses'
p802
S'0x05'
p803
sS'high_fuses'
p804
S'0xDA'
p805
sS'low_fuses'
p806
S'0xFF'
p807
sS'lock_bits'
p808
S'0x0F'
p809
sS'file'
p810
S'ATmegaBOOT_168_atmega328_pro_8MHz.hex'
p811
sS'path'
p812
S'atmega'
p813
sS'unlock_bits'
p814
S'0x3F'
p815
ssS'upload'
p816
(dp817
S'protocol'
p818
S'arduino'
p819
sS'maximum_size'
p820
S'30720'
p821
sS'speed'
p822
S'57600'
p823
ssS'name'
p824
S'Arduino Pro or Pro Mini (3.3V, 8 MHz) w/ ATmega328'
p825
sS'build'
p826
(dp827
S'core'
p828
S'arduino'
p829
sS'mcu'
p830
S'atmega328p'
p831
sS'f_cpu'
p832
S'8000000L'
p833
sS'variant'
p834
S'standard'
p835
ssaa(lp836
S'pro'
p837
a(dp838
g68
S'/usr/share/arduino/hardware/arduino'
p839
sS'bootloader'
p840
(dp841
S'extended_fuses'
p842
S'0x00'
p843
sS'high_fuses'
p844
S'0xdd'
p845
sS'low_fuses'
p846
S'0xc6'
p847
sS'lock_bits'
p848
S'0x0F'
p849
sS'file'
p850
S'ATmegaBOOT_168_pro_8MHz.hex'
p851
sS'path'
p852
S'atmega'
p853
sS'unlock_bits'
p854
S'0x3F'
p855
ssS'upload'
p856
(dp857
S'protocol'
p858
S'arduino'
p859
sS'maximum_size'
p860
S'14336'
p861
sS'speed'
p862
S'19200'
p863
ssS'name'
p864
S'Arduino Pro or Pro Mini (3.3V, 8 MHz) w/ ATmega168'
p865
sS'build'
p866
(dp867
S'core'
p868
S'arduino'
p869
sS'mcu'
p870
S'atmega168'
p871
sS'f_cpu'
p872
S'8000000L'
p873
sS'variant'
p874
S'standard'
p875
ssaa(lp876
S'atmega168'
p877
a(dp878
g68
S'/usr/share/arduino/hardware/arduino'
p879
sS'bootloader'
p880
(dp881
S'extended_fuses'
p882
S'0x00'
p883
sS'high_fuses'
p884
S'0xdd'
p885
sS'low_fuses'
p886
S'0xff'
p887
sS'lock_bits'
p888
S'0x0F'
p889
sS'file'
p890
S'ATmegaBOOT_168_ng.hex'
p891
sS'path'
p892
S'atmega'
p893
sS'unlock_bits'
p894
S'0x3F'
p895
ssS'upload'
p896
(dp897
S'protocol'
p898
S'arduino'
p899
sS'maximum_size'
p900
S'14336'
p901
sS'speed'
p902
S'19200'
p903
ssS'name'
p904
S'Arduino NG or older w/ ATmega168'
p905
sS'build'
p906
(dp907
S'core'
p908
S'arduino'
p909
sS'mcu'
p910
S'atmega168'
p911
sS'f_cpu'
p912
S'16000000L'
p913
sS'variant'
p914
S'standard'
p915
ssaa(lp916
S'atmega8'
p917
a(dp918
g68
S'/usr/share/arduino/hardware/arduino'
p919
sS'bootloader'
p920
(dp921
S'high_fuses'
p922
S'0xca'
p923
sS'low_fuses'
p924
S'0xdf'
p925
sS'lock_bits'
p926
S'0x0F'
p927
sS'file'
p928
S'ATmegaBOOT.hex'
p929
sS'path'
p930
S'atmega8'
p931
sS'unlock_bits'
p932
S'0x3F'
p933
ssS'upload'
p934
(dp935
S'protocol'
p936
S'arduino'
p937
sS'maximum_size'
p938
S'7168'
p939
sS'speed'
p940
S'19200'
p941
ssS'name'
p942
S'Arduino NG or older w/ ATmega8'
p943
sS'build'
p944
(dp945
S'core'
p946
S'arduino'
p947
sS'mcu'
p948
S'atmega8'
p949
sS'f_cpu'
p950
S'16000000L'
p951
sS'variant'
p952
S'standard'
p953
ssaatp954
Rp955
(dp956
S'default'
p957
S'uno'
p958
sbtp959
a(S'used_libs'
p960
(lp961
S'/usr/share/arduino/libraries/Servo'
p962
aS'lib/hx711'
p963
aS'/usr/share/arduino/hardware/arduino/cores/arduino'
p964
atp965
a(S'make'
p966
S'/usr/bin/make'
p967
tp968
a(S'build_dir'
p969
S'.build/nano328'
p970
tp971
a(S'cxx'
p972
S'/usr/bin/avr-g++'
p973
tp974
a(S'cflags'
p975
g2
(g3
g4
(lp976
tp977
Rp978
tp979
a(S'cxxflags'
p980
g2
(g3
g4
(lp981
S'-fno-exceptions'
p982
atp983
Rp984
tp985
a(S'arduino_variants_dir'
p986
S'/usr/share/arduino/hardware/arduino/variants'
p987
tp988
a(S'stty'
p989
S'/bin/stty'
p990
tp991
a(S'version.txt'
p992
S'/usr/share/arduino/lib/version.txt'
p993
tp994
a(S'arduino_core_dir'
p995
g964
tp996
a(S'boards.txt'
p997
(lp998
S'/usr/share/arduino/hardware/arduino/boards.txt'
p999
atp1000
a(S'avrdude.conf'
p1001
S'/usr/share/arduino/hardware/tools/avrdude.conf'
p1002
tp1003
a(S'deps'
p1004
g2
(g3
g4
(lp1005
S'.build/nano328/src/dependencies.d'
p1006
aS'.build/nano328/arduino/dependencies.d'
p1007
aS'.build/nano328/Servo/dependencies.d'
p1008
aS'.build/nano328/hx711/dependencies.d'
p1009
atp1010
Rp1011
tp1012
a.